; Function Attrs: mustprogress nofree norecurse nosync nounwind willreturn memory(argmem: readwrite) uwtable
define hidden noundef float @_ZN11opencv_test9randomNanIfEET_RN2cv3RNGE(ptr nocapture noundef nonnull align 8 dereferenceable(8) %0) local_unnamed_addr #9 {
  %2 = load i64, ptr %0, align 8
  %3 = and i64 %2, 4294967295
  %4 = mul nuw i64 %3, 4164903690
  %5 = lshr i64 %2, 32
  %6 = add nuw i64 %4, %5
  store i64 %6, ptr %0, align 8
  %7 = trunc i64 %6 to i32
  %8 = or i32 %7, 2139095041
  %9 = bitcast i32 %8 to float
  ret float %9
}